; Function Attrs: mustprogress uwtable
define void @_ZN7rocksdb24PessimisticTransactionDB6UnLockEPNS_22PessimisticTransactionEjRKNSt7__cxx1112basic_stringIcSt11char_traitsIcESaIcEEE(ptr noundef nonnull align 8 dereferenceable(520) %0, ptr noundef %1, i32 noundef %2, ptr noundef nonnull align 8 dereferenceable(32) %3) local_unnamed_addr #4 align 2 {
  %5 = getelementptr inbounds nuw i8, ptr %0, i64 248
  %6 = load ptr, ptr %5, align 8, !tbaa !219
  %7 = load ptr, ptr %0, align 8, !tbaa !26
  %8 = getelementptr inbounds nuw i8, ptr %7, i64 776
  %9 = load ptr, ptr %8, align 8
  %10 = tail call noundef ptr %9(ptr noundef nonnull align 8 dereferenceable(32) %0)
  %11 = load ptr, ptr %6, align 8, !tbaa !26
  %12 = getelementptr inbounds nuw i8, ptr %11, i64 80
  %13 = load ptr, ptr %12, align 8
  tail call void %13(ptr noundef nonnull align 8 dereferenceable(8) %6, ptr noundef %1, i32 noundef %2, ptr noundef nonnull align 8 dereferenceable(32) %3, ptr noundef %10)
  ret void
}